
temp.o:     file format elf64-littleaarch64


Disassembly of section .text:

0000000000000000 <add_two_nums>:
   0:	ab010000 	adds	x0, x0, x1
   4:	d503201f 	nop
   8:	d503201f 	nop
   c:	d503201f 	nop
  10:	d65f03c0 	ret
  14:	d503201f 	nop
  18:	d503201f 	nop
  1c:	d503201f 	nop

0000000000000020 <start>:
  20:	d10043ff 	sub	sp, sp, #0x10
  24:	f80003e9 	stur	x9, [sp]
  28:	f80083fe 	stur	x30, [sp, #8]
  2c:	d503201f 	nop
  30:	d503201f 	nop
  34:	d503201f 	nop
  38:	910003fd 	mov	x29, sp
  3c:	d503201f 	nop
  40:	d503201f 	nop
  44:	d503201f 	nop
  48:	d2807d01 	mov	x1, #0x3e8                 	// #1000
  4c:	d503201f 	nop
  50:	d503201f 	nop
  54:	d503201f 	nop
  58:	d2800c80 	mov	x0, #0x64                  	// #100
  5c:	d503201f 	nop
  60:	d503201f 	nop
  64:	d503201f 	nop
  68:	94000000 	bl	0 <add_two_nums>
  6c:	d503201f 	nop
  70:	d503201f 	nop
  74:	d503201f 	nop
  78:	92800001 	mov	x1, #0xffffffffffffffff    	// #-1
  7c:	d503201f 	nop
  80:	d503201f 	nop
  84:	d503201f 	nop
  88:	f8000020 	stur	x0, [x1]
  8c:	d503201f 	nop
  90:	d503201f 	nop
  94:	d503201f 	nop
  98:	f84003e9 	ldur	x9, [sp]
  9c:	f84083fe 	ldur	x30, [sp, #8]
  a0:	910043ff 	add	sp, sp, #0x10
  a4:	d503201f 	nop
  a8:	d503201f 	nop
  ac:	d503201f 	nop
  b0:	d65f03c0 	ret
  b4:	d503201f 	nop
  b8:	d503201f 	nop
  bc:	d503201f 	nop
